target datalayout = "e-m:e-p270:32:32-p271:32:32-p272:64:64-i64:64-i128:128-f80:128-n8:16:32:64-S128"
target triple = "x86_64-pc-linux-gnu"

%"class.std::vector.0" = type { %"struct.std::_Vector_base.1" }
%"struct.std::_Vector_base.1" = type { %"struct.std::_Vector_base<int, std::allocator<int>>::_Vector_impl" }
%"struct.std::_Vector_base<int, std::allocator<int>>::_Vector_impl" = type { %"struct.std::_Vector_base<int, std::allocator<int>>::_Vector_impl_data" }
%"struct.std::_Vector_base<int, std::allocator<int>>::_Vector_impl_data" = type { ptr, ptr, ptr }
%"class.std::shared_ptr" = type { %"class.std::__shared_ptr" }
%"class.std::__shared_ptr" = type { ptr, %"class.std::__shared_count" }
%"class.std::__shared_count" = type { ptr }
%"class.open_spiel::State" = type <{ ptr, %"class.std::shared_ptr", i32, i32, %"class.std::vector.18", i32, [4 x i8] }>
%"class.std::vector.18" = type { %"struct.std::_Vector_base.19" }
%"struct.std::_Vector_base.19" = type { %"struct.std::_Vector_base<open_spiel::State::PlayerAction, std::allocator<open_spiel::State::PlayerAction>>::_Vector_impl" }
%"struct.std::_Vector_base<open_spiel::State::PlayerAction, std::allocator<open_spiel::State::PlayerAction>>::_Vector_impl" = type { %"struct.std::_Vector_base<open_spiel::State::PlayerAction, std::allocator<open_spiel::State::PlayerAction>>::_Vector_impl_data" }
%"struct.std::_Vector_base<open_spiel::State::PlayerAction, std::allocator<open_spiel::State::PlayerAction>>::_Vector_impl_data" = type { ptr, ptr, ptr }
%"class.open_spiel::maedn::MaednState" = type { %"class.open_spiel::State.base", i32, i32, i8, i32, i32, i32, %"class.std::vector.0", %"class.std::vector.0", %"class.std::vector.23" }
%"class.open_spiel::State.base" = type <{ ptr, %"class.std::shared_ptr", i32, i32, %"class.std::vector.18", i32 }>
%"class.std::vector.23" = type { %"struct.std::_Vector_base.24" }
%"struct.std::_Vector_base.24" = type { %"struct.std::_Vector_base<open_spiel::maedn::TurnHistoryInfo, std::allocator<open_spiel::maedn::TurnHistoryInfo>>::_Vector_impl" }
%"struct.std::_Vector_base<open_spiel::maedn::TurnHistoryInfo, std::allocator<open_spiel::maedn::TurnHistoryInfo>>::_Vector_impl" = type { %"struct.std::_Vector_base<open_spiel::maedn::TurnHistoryInfo, std::allocator<open_spiel::maedn::TurnHistoryInfo>>::_Vector_impl_data" }
%"struct.std::_Vector_base<open_spiel::maedn::TurnHistoryInfo, std::allocator<open_spiel::maedn::TurnHistoryInfo>>::_Vector_impl_data" = type { ptr, ptr, ptr }

; Function Attrs: mustprogress nounwind uwtable
define linkonce_odr noundef i32 @_ZNK10open_spiel5maedn10MaednState16PlayerToPositionEi(ptr noundef nonnull align 8 dereferenceable(160) %0, i32 noundef %1) #4 comdat align 2 {
  %3 = alloca ptr, align 8
  %4 = alloca i32, align 4
  store ptr %0, ptr %3, align 8
  store i32 %1, ptr %4, align 4
  %5 = load ptr, ptr %3, align 8
  %6 = getelementptr inbounds nuw %"class.open_spiel::State", ptr %5, i32 0, i32 3
  %7 = load i32, ptr %6, align 4
  %8 = icmp eq i32 %7, 2
  br i1 %8, label %9, label %22

9:                                                ; preds = %2
  %10 = getelementptr inbounds nuw %"class.open_spiel::maedn::MaednState", ptr %5, i32 0, i32 3
  %11 = load i8, ptr %10, align 4
  %12 = trunc i8 %11 to i1
  br i1 %12, label %13, label %22

13:                                               ; preds = %9
  %14 = load i32, ptr %4, align 4
  %15 = icmp eq i32 %14, 1
  br i1 %15, label %19, label %16

16:                                               ; preds = %13
  %17 = load i32, ptr %4, align 4
  %18 = icmp eq i32 %17, 2
  br i1 %18, label %19, label %22

19:                                               ; preds = %16, %13
  %20 = load i32, ptr %4, align 4
  %21 = sub nsw i32 3, %20
  br label %24

22:                                               ; preds = %16, %9, %2
  %23 = load i32, ptr %4, align 4
  br label %24

24:                                               ; preds = %22, %19
  %25 = phi i32 [ %21, %19 ], [ %23, %22 ]
  ret i32 %25
}

; Function Attrs: mustprogress uwtable
define noundef i32 @_ZNK10open_spiel5maedn10MaednState20GetPlayersFirstFieldEi(ptr noundef nonnull align 8 dereferenceable(160) %0, i32 noundef %1) #5 align 2 {
  %3 = alloca ptr, align 8
  %4 = alloca i32, align 4
  %5 = alloca i32, align 4
  store ptr %0, ptr %3, align 8
  store i32 %1, ptr %4, align 4
  %6 = load ptr, ptr %3, align 8
  %7 = load i32, ptr %4, align 4
  %8 = call noundef i32 @_ZNK10open_spiel5maedn10MaednState16PlayerToPositionEi(ptr noundef nonnull align 8 dereferenceable(160) %6, i32 noundef %7)
  store i32 %8, ptr %5, align 4
  %9 = load i32, ptr %5, align 4
  %10 = mul nsw i32 10, %9
  ret i32 %10
}