; Function Attrs: mustprogress nofree norecurse nosync nounwind willreturn memory(argmem: read) uwtable
define noundef i32 @_ZNK10open_spiel5maedn10MaednState20GetPlayersFirstFieldEi(ptr noundef nonnull readonly align 8 captures(none) dereferenceable(160) %0, i32 noundef %1) local_unnamed_addr #8 align 2 {
  %3 = getelementptr inbounds nuw i8, ptr %0, i64 28
  %4 = load i32, ptr %3, align 4
  %5 = icmp eq i32 %4, 2
  br i1 %5, label %6, label %_ZNK10open_spiel5maedn10MaednState16PlayerToPositionEi.exit

6:                                                ; preds = %2
  %7 = getelementptr inbounds nuw i8, ptr %0, i64 68
  %8 = load i8, ptr %7, align 4
  %9 = trunc i8 %8 to i1
  %10 = add i32 %1, -1
  %or.cond.i = icmp ult i32 %10, 2
  %or.cond5.i = and i1 %or.cond.i, %9
  %11 = sub nuw nsw i32 3, %1
  %spec.select.i = select i1 %or.cond5.i, i32 %11, i32 %1
  br label %_ZNK10open_spiel5maedn10MaednState16PlayerToPositionEi.exit

_ZNK10open_spiel5maedn10MaednState16PlayerToPositionEi.exit: ; preds = %2, %6
  %12 = phi i32 [ %1, %2 ], [ %spec.select.i, %6 ]
  %13 = mul nsw i32 %12, 10
  ret i32 %13
}